; Function Attrs: nounwind uwtable
define internal noundef i32 @lj_cf_io_method___gc(ptr noundef %0) #0 {
  %2 = getelementptr inbounds nuw i8, ptr %0, i64 32
  %3 = load ptr, ptr %2, align 8, !tbaa !25
  %4 = getelementptr inbounds nuw i8, ptr %0, i64 40
  %5 = load ptr, ptr %4, align 8, !tbaa !4
  %6 = icmp ult ptr %3, %5
  br i1 %6, label %7, label %16

7:                                                ; preds = %1
  %8 = load i64, ptr %3, align 8, !tbaa !14
  %.mask.i = and i64 %8, -140737488355328
  %9 = icmp eq i64 %.mask.i, -1829587348619264
  br i1 %9, label %10, label %16

10:                                               ; preds = %7
  %11 = and i64 %8, 140737488355327
  %12 = inttoptr i64 %11 to ptr
  %13 = getelementptr inbounds nuw i8, ptr %12, i64 10
  %14 = load i8, ptr %13, align 2, !tbaa !14
  %15 = icmp eq i8 %14, 1
  br i1 %15, label %io_tofilep.exit, label %16

16:                                               ; preds = %10, %7, %1
  tail call void @lj_err_argtype(ptr noundef nonnull %0, i32 noundef 1, ptr noundef nonnull @.str) #11
  unreachable

io_tofilep.exit:                                  ; preds = %10
  %17 = getelementptr inbounds nuw i8, ptr %12, i64 48
  %18 = load ptr, ptr %17, align 8, !tbaa !20
  %.not = icmp eq ptr %18, null
  br i1 %.not, label %io_file_close.exit, label %19

19:                                               ; preds = %io_tofilep.exit
  %20 = getelementptr inbounds nuw i8, ptr %12, i64 56
  %21 = load i32, ptr %20, align 8, !tbaa !22
  %22 = and i32 %21, 3
  switch i32 %22, label %default.unreachable [
    i32 2, label %io_file_close.exit
    i32 0, label %23
    i32 1, label %26
    i32 3, label %29
  ]

23:                                               ; preds = %19
  %24 = tail call i32 @fclose(ptr noundef nonnull %18)
  %25 = icmp eq i32 %24, 0
  br label %31

26:                                               ; preds = %19
  %27 = tail call i32 @pclose(ptr noundef nonnull %18)
  %28 = icmp ne i32 %27, -1
  br label %31

default.unreachable:                              ; preds = %19
  unreachable

29:                                               ; preds = %19
  %30 = getelementptr inbounds nuw i8, ptr %5, i64 8
  store ptr %30, ptr %4, align 8, !tbaa !4
  store i64 -1, ptr %5, align 8, !tbaa !14
  tail call void @lua_pushlstring(ptr noundef nonnull %0, ptr noundef nonnull @.str.5, i64 noundef 26) #10
  br label %io_file_close.exit

31:                                               ; preds = %26, %23
  %.010.in.i = phi i1 [ %25, %23 ], [ %28, %26 ]
  %.010.i = zext i1 %.010.in.i to i32
  store ptr null, ptr %17, align 8, !tbaa !20
  %32 = tail call i32 @luaL_fileresult(ptr noundef nonnull %0, i32 noundef %.010.i, ptr noundef null) #10
  br label %io_file_close.exit

io_file_close.exit:                               ; preds = %19, %31, %29, %io_tofilep.exit
  ret i32 0
}